target datalayout = "e-m:e-p270:32:32-p271:32:32-p272:64:64-i64:64-i128:128-f80:128-n8:16:32:64-S128"
target triple = "x86_64-pc-linux-gnu"

; Function Attrs: mustprogress nounwind uwtable
define noundef i32 @_Z36alts_tsi_utils_convert_to_tsi_result16grpc_status_code(i32 noundef %0) #4 {
  %2 = alloca i32, align 4
  %3 = alloca i32, align 4
  store i32 %0, ptr %3, align 4, !tbaa !3
  %4 = load i32, ptr %3, align 4, !tbaa !3
  switch i32 %4, label %10 [
    i32 0, label %5
    i32 2, label %6
    i32 3, label %7
    i32 5, label %8
    i32 13, label %9
  ]

5:                                                ; preds = %1
  store i32 0, ptr %2, align 4
  br label %11

6:                                                ; preds = %1
  store i32 1, ptr %2, align 4
  br label %11

7:                                                ; preds = %1
  store i32 2, ptr %2, align 4
  br label %11

8:                                                ; preds = %1
  store i32 9, ptr %2, align 4
  br label %11

9:                                                ; preds = %1
  store i32 7, ptr %2, align 4
  br label %11

10:                                               ; preds = %1
  store i32 1, ptr %2, align 4
  br label %11

11:                                               ; preds = %10, %9, %8, %7, %6, %5
  %12 = load i32, ptr %2, align 4
  ret i32 %12
}