; Function Attrs: mustprogress nofree norecurse nosync nounwind willreturn memory(none) uwtable
define noundef range(i32 0, 10) i32 @_Z36alts_tsi_utils_convert_to_tsi_result16grpc_status_code(i32 noundef %0) local_unnamed_addr #3 {
  switch i32 %0, label %5 [
    i32 0, label %6
    i32 13, label %4
    i32 3, label %2
    i32 5, label %3
  ]

2:                                                ; preds = %1
  br label %6

3:                                                ; preds = %1
  br label %6

4:                                                ; preds = %1
  br label %6

5:                                                ; preds = %1
  br label %6

6:                                                ; preds = %1, %5, %4, %3, %2
  %.0 = phi i32 [ 1, %5 ], [ 7, %4 ], [ 9, %3 ], [ 2, %2 ], [ %0, %1 ]
  ret i32 %.0
}